target datalayout = "e-m:e-p270:32:32-p271:32:32-p272:64:64-i64:64-i128:128-f80:128-n8:16:32:64-S128"
target triple = "x86_64-pc-linux-gnu"

%"class.cv::Scalar_" = type { %"class.cv::Vec" }
%"class.cv::Vec" = type { %"class.cv::Matx" }
%"class.cv::Matx" = type { [4 x double] }

; Function Attrs: inlinehint mustprogress nounwind uwtable
define linkonce_odr hidden void @_ZN2cv4MatxIdLi4ELi1EEC2Ev(ptr noundef nonnull align 8 dereferenceable(32) %0) unnamed_addr #4 comdat align 2 {
  %2 = alloca ptr, align 8
  %3 = alloca i32, align 4
  store ptr %0, ptr %2, align 8, !tbaa !194
  %4 = load ptr, ptr %2, align 8
  call void @llvm.lifetime.start.p0(i64 4, ptr %3) #3
  store i32 0, ptr %3, align 4, !tbaa !8
  br label %5

5:                                                ; preds = %14, %1
  %6 = load i32, ptr %3, align 4, !tbaa !8
  %7 = icmp slt i32 %6, 4
  br i1 %7, label %9, label %8

8:                                                ; preds = %5
  call void @llvm.lifetime.end.p0(i64 4, ptr %3) #3
  br label %17

9:                                                ; preds = %5
  %10 = getelementptr inbounds nuw %"class.cv::Matx", ptr %4, i32 0, i32 0
  %11 = load i32, ptr %3, align 4, !tbaa !8
  %12 = sext i32 %11 to i64
  %13 = getelementptr inbounds [4 x double], ptr %10, i64 0, i64 %12
  store double 0.000000e+00, ptr %13, align 8, !tbaa !62
  br label %14

14:                                               ; preds = %9
  %15 = load i32, ptr %3, align 4, !tbaa !8
  %16 = add nsw i32 %15, 1
  store i32 %16, ptr %3, align 4, !tbaa !8
  br label %5, !llvm.loop !196

17:                                               ; preds = %8
  ret void
}

; Function Attrs: inlinehint mustprogress uwtable
define linkonce_odr hidden void @_ZN2cv3VecIdLi4EEC2Ev(ptr noundef nonnull align 8 dereferenceable(32) %0) unnamed_addr #11 comdat align 2 {
  %2 = alloca ptr, align 8
  store ptr %0, ptr %2, align 8, !tbaa !192
  %3 = load ptr, ptr %2, align 8
  call void @_ZN2cv4MatxIdLi4ELi1EEC2Ev(ptr noundef nonnull align 8 dereferenceable(32) %3)
  ret void
}

; Function Attrs: inlinehint mustprogress uwtable
define linkonce_odr hidden void @_ZN2cv7Scalar_IdEC2Edddd(ptr noundef nonnull align 8 dereferenceable(32) %0, double noundef %1, double noundef %2, double noundef %3, double noundef %4) unnamed_addr #11 comdat align 2 {
  %6 = alloca ptr, align 8
  %7 = alloca double, align 8
  %8 = alloca double, align 8
  %9 = alloca double, align 8
  %10 = alloca double, align 8
  store ptr %0, ptr %6, align 8, !tbaa !134
  store double %1, ptr %7, align 8, !tbaa !62
  store double %2, ptr %8, align 8, !tbaa !62
  store double %3, ptr %9, align 8, !tbaa !62
  store double %4, ptr %10, align 8, !tbaa !62
  %11 = load ptr, ptr %6, align 8
  call void @_ZN2cv3VecIdLi4EEC2Ev(ptr noundef nonnull align 8 dereferenceable(32) %11)
  %12 = load double, ptr %7, align 8, !tbaa !62
  %13 = getelementptr inbounds nuw %"class.cv::Matx", ptr %11, i32 0, i32 0
  %14 = getelementptr inbounds [4 x double], ptr %13, i64 0, i64 0
  store double %12, ptr %14, align 8, !tbaa !62
  %15 = load double, ptr %8, align 8, !tbaa !62
  %16 = getelementptr inbounds nuw %"class.cv::Matx", ptr %11, i32 0, i32 0
  %17 = getelementptr inbounds [4 x double], ptr %16, i64 0, i64 1
  store double %15, ptr %17, align 8, !tbaa !62
  %18 = load double, ptr %9, align 8, !tbaa !62
  %19 = getelementptr inbounds nuw %"class.cv::Matx", ptr %11, i32 0, i32 0
  %20 = getelementptr inbounds [4 x double], ptr %19, i64 0, i64 2
  store double %18, ptr %20, align 8, !tbaa !62
  %21 = load double, ptr %10, align 8, !tbaa !62
  %22 = getelementptr inbounds nuw %"class.cv::Matx", ptr %11, i32 0, i32 0
  %23 = getelementptr inbounds [4 x double], ptr %22, i64 0, i64 3
  store double %21, ptr %23, align 8, !tbaa !62
  ret void
}

; Function Attrs: inlinehint mustprogress nounwind uwtable
define linkonce_odr hidden noundef nonnull align 8 dereferenceable(32) ptr @_ZN2cv7Scalar_IdEaSEOS1_(ptr noundef nonnull align 8 dereferenceable(32) %0, ptr noundef nonnull align 8 dereferenceable(32) %1) #4 comdat align 2 {
  %3 = alloca ptr, align 8
  %4 = alloca ptr, align 8
  store ptr %0, ptr %3, align 8, !tbaa !134
  store ptr %1, ptr %4, align 8, !tbaa !134
  %5 = load ptr, ptr %3, align 8
  %6 = load ptr, ptr %4, align 8, !tbaa !134
  %7 = getelementptr inbounds nuw %"class.cv::Matx", ptr %6, i32 0, i32 0
  %8 = getelementptr inbounds [4 x double], ptr %7, i64 0, i64 0
  %9 = load double, ptr %8, align 8, !tbaa !62
  %10 = getelementptr inbounds nuw %"class.cv::Matx", ptr %5, i32 0, i32 0
  %11 = getelementptr inbounds [4 x double], ptr %10, i64 0, i64 0
  store double %9, ptr %11, align 8, !tbaa !62
  %12 = load ptr, ptr %4, align 8, !tbaa !134
  %13 = getelementptr inbounds nuw %"class.cv::Matx", ptr %12, i32 0, i32 0
  %14 = getelementptr inbounds [4 x double], ptr %13, i64 0, i64 1
  %15 = load double, ptr %14, align 8, !tbaa !62
  %16 = getelementptr inbounds nuw %"class.cv::Matx", ptr %5, i32 0, i32 0
  %17 = getelementptr inbounds [4 x double], ptr %16, i64 0, i64 1
  store double %15, ptr %17, align 8, !tbaa !62
  %18 = load ptr, ptr %4, align 8, !tbaa !134
  %19 = getelementptr inbounds nuw %"class.cv::Matx", ptr %18, i32 0, i32 0
  %20 = getelementptr inbounds [4 x double], ptr %19, i64 0, i64 2
  %21 = load double, ptr %20, align 8, !tbaa !62
  %22 = getelementptr inbounds nuw %"class.cv::Matx", ptr %5, i32 0, i32 0
  %23 = getelementptr inbounds [4 x double], ptr %22, i64 0, i64 2
  store double %21, ptr %23, align 8, !tbaa !62
  %24 = load ptr, ptr %4, align 8, !tbaa !134
  %25 = getelementptr inbounds nuw %"class.cv::Matx", ptr %24, i32 0, i32 0
  %26 = getelementptr inbounds [4 x double], ptr %25, i64 0, i64 3
  %27 = load double, ptr %26, align 8, !tbaa !62
  %28 = getelementptr inbounds nuw %"class.cv::Matx", ptr %5, i32 0, i32 0
  %29 = getelementptr inbounds [4 x double], ptr %28, i64 0, i64 3
  store double %27, ptr %29, align 8, !tbaa !62
  ret ptr %5
}

; Function Attrs: inlinehint mustprogress uwtable
define linkonce_odr hidden void @_ZN2cv7Scalar_IdE3allEd(ptr dead_on_unwind noalias writable sret(%"class.cv::Scalar_") align 8 %0, double noundef %1) #11 comdat align 2 {
  %3 = alloca ptr, align 8
  %4 = alloca double, align 8
  store ptr %0, ptr %3, align 8
  store double %1, ptr %4, align 8, !tbaa !62
  %5 = load double, ptr %4, align 8, !tbaa !62
  %6 = load double, ptr %4, align 8, !tbaa !62
  %7 = load double, ptr %4, align 8, !tbaa !62
  %8 = load double, ptr %4, align 8, !tbaa !62
  call void @_ZN2cv7Scalar_IdEC2Edddd(ptr noundef nonnull align 8 dereferenceable(32) %0, double noundef %5, double noundef %6, double noundef %7, double noundef %8)
  ret void
}

; Function Attrs: mustprogress uwtable
define hidden void @_ZN6cvtest9ArrayTest17get_minmax_boundsEiiiRN2cv7Scalar_IdEES4_(ptr noundef nonnull align 8 dereferenceable(136) %0, i32 noundef %1, i32 noundef %2, i32 noundef %3, ptr noundef nonnull align 8 dereferenceable(32) %4, ptr noundef nonnull align 8 dereferenceable(32) %5) unnamed_addr #6 align 2 {
  %7 = alloca ptr, align 8
  %8 = alloca i32, align 4
  %9 = alloca i32, align 4
  %10 = alloca i32, align 4
  %11 = alloca ptr, align 8
  %12 = alloca ptr, align 8
  %13 = alloca double, align 8
  %14 = alloca double, align 8
  %15 = alloca i32, align 4
  %16 = alloca %"class.cv::Scalar_", align 8
  %17 = alloca %"class.cv::Scalar_", align 8
  store ptr %0, ptr %7, align 8, !tbaa !13
  store i32 %1, ptr %8, align 4, !tbaa !8
  store i32 %2, ptr %9, align 4, !tbaa !8
  store i32 %3, ptr %10, align 4, !tbaa !8
  store ptr %4, ptr %11, align 8, !tbaa !134
  store ptr %5, ptr %12, align 8, !tbaa !134
  call void @llvm.lifetime.start.p0(i64 8, ptr %13) #3
  call void @llvm.lifetime.start.p0(i64 8, ptr %14) #3
  call void @llvm.lifetime.start.p0(i64 4, ptr %15) #3
  %18 = load i32, ptr %10, align 4, !tbaa !8
  %19 = and i32 %18, 7
  store i32 %19, ptr %15, align 4, !tbaa !8
  %20 = load i32, ptr %8, align 4, !tbaa !8
  %21 = icmp eq i32 %20, 6
  br i1 %21, label %22, label %23

22:                                               ; preds = %6
  store double -2.000000e+00, ptr %13, align 8, !tbaa !62
  store double 2.000000e+00, ptr %14, align 8, !tbaa !62
  br label %38

23:                                               ; preds = %6
  %24 = load i32, ptr %15, align 4, !tbaa !8
  %25 = icmp slt i32 %24, 4
  br i1 %25, label %26, label %31

26:                                               ; preds = %23
  %27 = load i32, ptr %10, align 4, !tbaa !8
  %28 = call noundef double @_ZN6cvtest9getMinValEi(i32 noundef %27)
  store double %28, ptr %13, align 8, !tbaa !62
  %29 = load i32, ptr %10, align 4, !tbaa !8
  %30 = call noundef double @_ZN6cvtest9getMaxValEi(i32 noundef %29)
  store double %30, ptr %14, align 8, !tbaa !62
  br label %37

31:                                               ; preds = %23
  %32 = load i32, ptr %15, align 4, !tbaa !8
  %33 = icmp eq i32 %32, 4
  %34 = select i1 %33, double 1.000000e+06, double 1.000000e+03
  store double %34, ptr %14, align 8, !tbaa !62
  %35 = load double, ptr %14, align 8, !tbaa !62
  %36 = fneg double %35
  store double %36, ptr %13, align 8, !tbaa !62
  br label %37

37:                                               ; preds = %31, %26
  br label %38

38:                                               ; preds = %37, %22
  call void @llvm.lifetime.start.p0(i64 32, ptr %16) #3
  %39 = load double, ptr %13, align 8, !tbaa !62
  call void @_ZN2cv7Scalar_IdE3allEd(ptr dead_on_unwind writable sret(%"class.cv::Scalar_") align 8 %16, double noundef %39)
  %40 = load ptr, ptr %11, align 8, !tbaa !134
  %41 = call noundef nonnull align 8 dereferenceable(32) ptr @_ZN2cv7Scalar_IdEaSEOS1_(ptr noundef nonnull align 8 dereferenceable(32) %40, ptr noundef nonnull align 8 dereferenceable(32) %16) #3
  call void @llvm.lifetime.end.p0(i64 32, ptr %16) #3
  call void @llvm.lifetime.start.p0(i64 32, ptr %17) #3
  %42 = load double, ptr %14, align 8, !tbaa !62
  call void @_ZN2cv7Scalar_IdE3allEd(ptr dead_on_unwind writable sret(%"class.cv::Scalar_") align 8 %17, double noundef %42)
  %43 = load ptr, ptr %12, align 8, !tbaa !134
  %44 = call noundef nonnull align 8 dereferenceable(32) ptr @_ZN2cv7Scalar_IdEaSEOS1_(ptr noundef nonnull align 8 dereferenceable(32) %43, ptr noundef nonnull align 8 dereferenceable(32) %17) #3
  call void @llvm.lifetime.end.p0(i64 32, ptr %17) #3
  call void @llvm.lifetime.end.p0(i64 4, ptr %15) #3
  call void @llvm.lifetime.end.p0(i64 8, ptr %14) #3
  call void @llvm.lifetime.end.p0(i64 8, ptr %13) #3
  ret void
}