; Function Attrs: mustprogress uwtable
define hidden void @_ZN6cvtest9ArrayTest17get_minmax_boundsEiiiRN2cv7Scalar_IdEES4_(ptr nonnull readnone align 8 captures(none) %0, i32 noundef %1, i32 %2, i32 noundef %3, ptr noundef nonnull writeonly align 8 captures(none) dereferenceable(32) initializes((0, 32)) %4, ptr noundef nonnull writeonly align 8 captures(none) dereferenceable(32) initializes((0, 32)) %5) unnamed_addr #4 align 2 {
  %7 = and i32 %3, 7
  %8 = icmp eq i32 %1, 6
  br i1 %8, label %18, label %9

9:                                                ; preds = %6
  %10 = icmp samesign ult i32 %7, 4
  br i1 %10, label %11, label %14

11:                                               ; preds = %9
  %12 = tail call noundef double @_ZN6cvtest9getMinValEi(i32 noundef %3)
  %13 = tail call noundef double @_ZN6cvtest9getMaxValEi(i32 noundef %3)
  br label %18

14:                                               ; preds = %9
  %15 = icmp eq i32 %7, 4
  %16 = select i1 %15, double 1.000000e+06, double 1.000000e+03
  %17 = fneg double %16
  br label %18

18:                                               ; preds = %6, %11, %14
  %.010 = phi double [ %13, %11 ], [ %16, %14 ], [ 2.000000e+00, %6 ]
  %.0 = phi double [ %12, %11 ], [ %17, %14 ], [ -2.000000e+00, %6 ]
  store double %.0, ptr %4, align 8, !tbaa !112
  %19 = getelementptr inbounds nuw i8, ptr %4, i64 8
  store double %.0, ptr %19, align 8, !tbaa !112
  %20 = getelementptr inbounds nuw i8, ptr %4, i64 16
  store double %.0, ptr %20, align 8, !tbaa !112
  %21 = getelementptr inbounds nuw i8, ptr %4, i64 24
  store double %.0, ptr %21, align 8, !tbaa !112
  store double %.010, ptr %5, align 8, !tbaa !112
  %22 = getelementptr inbounds nuw i8, ptr %5, i64 8
  store double %.010, ptr %22, align 8, !tbaa !112
  %23 = getelementptr inbounds nuw i8, ptr %5, i64 16
  store double %.010, ptr %23, align 8, !tbaa !112
  %24 = getelementptr inbounds nuw i8, ptr %5, i64 24
  store double %.010, ptr %24, align 8, !tbaa !112
  ret void
}